target datalayout = "e-m:e-p270:32:32-p271:32:32-p272:64:64-i64:64-i128:128-f80:128-n8:16:32:64-S128"
target triple = "x86_64-unknown-linux-gnu"

%class.hilbert_basis = type <{ ptr, %class.vector, %class.svector, %class.vector.1, %class.svector.2, %class.svector.2, %class.svector.2, %class.svector.2, %class.svector.2, ptr, ptr, %"struct.hilbert_basis::stats", [4 x i8], ptr, %class.svector.4, i32, i8, i8, i8, i8 }>
%class.vector = type { ptr }
%class.svector = type { %class.vector.0 }
%class.vector.0 = type { ptr }
%class.vector.1 = type { ptr }
%class.svector.2 = type { %class.vector.3 }
%class.vector.3 = type { ptr }
%"struct.hilbert_basis::stats" = type { i32, i32, i32 }
%class.svector.4 = type { %class.vector.5 }
%class.vector.5 = type { ptr }

@.str = private unnamed_addr constant [20 x i8] c"hb.num_subsumptions\00", align 1
@.str.1 = private unnamed_addr constant [16 x i8] c"hb.num_resolves\00", align 1
@.str.2 = private unnamed_addr constant [19 x i8] c"hb.num_saturations\00", align 1
@.str.3 = private unnamed_addr constant [14 x i8] c"hb.basis_size\00", align 1

; Function Attrs: mustprogress nounwind uwtable
define linkonce_odr hidden noundef i32 @_ZNK6vectorIN13hilbert_basis8offset_tELb0EjE4sizeEv(ptr noundef nonnull align 8 dereferenceable(8) %this) #5 comdat align 2 {
entry:
  %retval = alloca i32, align 4
  %this.addr = alloca ptr, align 8
  store ptr %this, ptr %this.addr, align 8
  %this1 = load ptr, ptr %this.addr, align 8
  %m_data = getelementptr inbounds %class.vector.3, ptr %this1, i32 0, i32 0
  %0 = load ptr, ptr %m_data, align 8
  %cmp = icmp eq ptr %0, null
  br i1 %cmp, label %if.then, label %if.end

if.then:                                          ; preds = %entry
  store i32 0, ptr %retval, align 4
  br label %return

if.end:                                           ; preds = %entry
  %m_data2 = getelementptr inbounds %class.vector.3, ptr %this1, i32 0, i32 0
  %1 = load ptr, ptr %m_data2, align 8
  %arrayidx = getelementptr inbounds i32, ptr %1, i64 -1
  %2 = load i32, ptr %arrayidx, align 4
  store i32 %2, ptr %retval, align 4
  br label %return

return:                                           ; preds = %if.end, %if.then
  %3 = load i32, ptr %retval, align 4
  ret i32 %3
}

; Function Attrs: mustprogress uwtable
define linkonce_odr hidden noundef i32 @_ZNK13hilbert_basis14get_basis_sizeEv(ptr noundef nonnull align 8 dereferenceable(127) %this) #4 comdat align 2 {
entry:
  %this.addr = alloca ptr, align 8
  store ptr %this, ptr %this.addr, align 8
  %this1 = load ptr, ptr %this.addr, align 8
  %m_basis = getelementptr inbounds %class.hilbert_basis, ptr %this1, i32 0, i32 4
  %call = call noundef i32 @_ZNK6vectorIN13hilbert_basis8offset_tELb0EjE4sizeEv(ptr noundef nonnull align 8 dereferenceable(8) %m_basis)
  ret i32 %call
}

; Function Attrs: mustprogress uwtable
define hidden void @_ZNK13hilbert_basis18collect_statisticsER10statistics(ptr noundef nonnull align 8 dereferenceable(127) %this, ptr noundef nonnull align 8 dereferenceable(16) %st) #4 align 2 {
entry:
  %this.addr = alloca ptr, align 8
  %st.addr = alloca ptr, align 8
  store ptr %this, ptr %this.addr, align 8
  store ptr %st, ptr %st.addr, align 8
  %this1 = load ptr, ptr %this.addr, align 8
  %0 = load ptr, ptr %st.addr, align 8
  %m_stats = getelementptr inbounds %class.hilbert_basis, ptr %this1, i32 0, i32 11
  %m_num_subsumptions = getelementptr inbounds %"struct.hilbert_basis::stats", ptr %m_stats, i32 0, i32 0
  %1 = load i32, ptr %m_num_subsumptions, align 8
  call void @_ZN10statistics6updateEPKcj(ptr noundef nonnull align 8 dereferenceable(16) %0, ptr noundef @.str, i32 noundef %1)
  %2 = load ptr, ptr %st.addr, align 8
  %m_stats2 = getelementptr inbounds %class.hilbert_basis, ptr %this1, i32 0, i32 11
  %m_num_resolves = getelementptr inbounds %"struct.hilbert_basis::stats", ptr %m_stats2, i32 0, i32 1
  %3 = load i32, ptr %m_num_resolves, align 4
  call void @_ZN10statistics6updateEPKcj(ptr noundef nonnull align 8 dereferenceable(16) %2, ptr noundef @.str.1, i32 noundef %3)
  %4 = load ptr, ptr %st.addr, align 8
  %m_stats3 = getelementptr inbounds %class.hilbert_basis, ptr %this1, i32 0, i32 11
  %m_num_saturations = getelementptr inbounds %"struct.hilbert_basis::stats", ptr %m_stats3, i32 0, i32 2
  %5 = load i32, ptr %m_num_saturations, align 8
  call void @_ZN10statistics6updateEPKcj(ptr noundef nonnull align 8 dereferenceable(16) %4, ptr noundef @.str.2, i32 noundef %5)
  %6 = load ptr, ptr %st.addr, align 8
  %call = call noundef i32 @_ZNK13hilbert_basis14get_basis_sizeEv(ptr noundef nonnull align 8 dereferenceable(127) %this1)
  call void @_ZN10statistics6updateEPKcj(ptr noundef nonnull align 8 dereferenceable(16) %6, ptr noundef @.str.3, i32 noundef %call)
  %m_index = getelementptr inbounds %class.hilbert_basis, ptr %this1, i32 0, i32 13
  %7 = load ptr, ptr %m_index, align 8
  %8 = load ptr, ptr %st.addr, align 8
  call void @_ZNK13hilbert_basis5index18collect_statisticsER10statistics(ptr noundef nonnull align 8 dereferenceable(1340) %7, ptr noundef nonnull align 8 dereferenceable(16) %8)
  ret void
}