; Function Attrs: mustprogress uwtable
define hidden void @_ZNK13hilbert_basis18collect_statisticsER10statistics(ptr nocapture noundef nonnull readonly align 8 dereferenceable(127) %this, ptr noundef nonnull align 8 dereferenceable(16) %st) local_unnamed_addr #3 align 2 {
entry:
  %m_stats = getelementptr inbounds i8, ptr %this, i64 88
  %0 = load i32, ptr %m_stats, align 8
  tail call void @_ZN10statistics6updateEPKcj(ptr noundef nonnull align 8 dereferenceable(16) %st, ptr noundef nonnull @.str, i32 noundef %0)
  %m_num_resolves = getelementptr inbounds i8, ptr %this, i64 92
  %1 = load i32, ptr %m_num_resolves, align 4
  tail call void @_ZN10statistics6updateEPKcj(ptr noundef nonnull align 8 dereferenceable(16) %st, ptr noundef nonnull @.str.1, i32 noundef %1)
  %m_num_saturations = getelementptr inbounds i8, ptr %this, i64 96
  %2 = load i32, ptr %m_num_saturations, align 8
  tail call void @_ZN10statistics6updateEPKcj(ptr noundef nonnull align 8 dereferenceable(16) %st, ptr noundef nonnull @.str.2, i32 noundef %2)
  %m_basis.i = getelementptr inbounds i8, ptr %this, i64 32
  %3 = load ptr, ptr %m_basis.i, align 8
  %cmp.i.i = icmp eq ptr %3, null
  br i1 %cmp.i.i, label %_ZNK13hilbert_basis14get_basis_sizeEv.exit, label %if.end.i.i

if.end.i.i:                                       ; preds = %entry
  %arrayidx.i.i = getelementptr inbounds i8, ptr %3, i64 -4
  %4 = load i32, ptr %arrayidx.i.i, align 4
  br label %_ZNK13hilbert_basis14get_basis_sizeEv.exit

_ZNK13hilbert_basis14get_basis_sizeEv.exit:       ; preds = %entry, %if.end.i.i
  %retval.0.i.i = phi i32 [ %4, %if.end.i.i ], [ 0, %entry ]
  tail call void @_ZN10statistics6updateEPKcj(ptr noundef nonnull align 8 dereferenceable(16) %st, ptr noundef nonnull @.str.3, i32 noundef %retval.0.i.i)
  %m_index = getelementptr inbounds i8, ptr %this, i64 104
  %5 = load ptr, ptr %m_index, align 8
  tail call void @_ZNK13hilbert_basis5index18collect_statisticsER10statistics(ptr noundef nonnull align 8 dereferenceable(1340) %5, ptr noundef nonnull align 8 dereferenceable(16) %st)
  ret void
}